target datalayout = "e-m:e-p270:32:32-p271:32:32-p272:64:64-i64:64-i128:128-f80:128-n8:16:32:64-S128"
target triple = "x86_64-pc-linux-gnu"

%struct.AVFormatContext = type { ptr, ptr, ptr, ptr, ptr, i32, i32, ptr, i32, ptr, i32, ptr, ptr, i64, i64, i64, i32, i32, i32, i64, i64, ptr, i32, i32, ptr, i32, i32, i32, i32, ptr, i64, i32, i32, %struct.AVIOInterruptCB, i32, i32, i32, i32, i64, i32, i32, i32, i32, i32, i32, i32, i32, i32, i32, i32, i32, i64, i32, i32, i32, i32, i32, ptr, ptr, ptr, ptr, i32, ptr, ptr, ptr, ptr, i32, ptr, ptr, i64, ptr, ptr, ptr, i64 }
%struct.AVIOInterruptCB = type { ptr, ptr }
%struct.SWFEncContext = type { i64, i64, i64, i32, i32, i32, i32, i32, ptr, ptr, ptr, ptr }

@.str.10 = private unnamed_addr constant [30 x i8] c"Assertion %s failed at %s:%d\0A\00", align 1
@.str.11 = private unnamed_addr constant [15 x i8] c"tag_len < 0x3f\00", align 1
@.str.12 = private unnamed_addr constant [21 x i8] c"libavformat/swfenc.c\00", align 1

; Function Attrs: alwaysinline nounwind uwtable
define internal i64 @avio_tell(ptr noundef %0) #4 {
  %2 = alloca ptr, align 8
  store ptr %0, ptr %2, align 8, !tbaa !29
  %3 = load ptr, ptr %2, align 8, !tbaa !29
  %4 = call i64 @avio_seek(ptr noundef %3, i64 noundef 0, i32 noundef 1)
  ret i64 %4
}

; Function Attrs: nounwind uwtable
define internal void @put_swf_end_tag(ptr noundef %0) #0 {
  %2 = alloca ptr, align 8
  %3 = alloca ptr, align 8
  %4 = alloca ptr, align 8
  %5 = alloca i64, align 8
  %6 = alloca i32, align 4
  %7 = alloca i32, align 4
  store ptr %0, ptr %2, align 8, !tbaa !4
  call void @llvm.lifetime.start.p0(i64 8, ptr %3) #8
  %8 = load ptr, ptr %2, align 8, !tbaa !4
  %9 = getelementptr inbounds nuw %struct.AVFormatContext, ptr %8, i32 0, i32 3
  %10 = load ptr, ptr %9, align 8, !tbaa !9
  store ptr %10, ptr %3, align 8, !tbaa !26
  call void @llvm.lifetime.start.p0(i64 8, ptr %4) #8
  %11 = load ptr, ptr %2, align 8, !tbaa !4
  %12 = getelementptr inbounds nuw %struct.AVFormatContext, ptr %11, i32 0, i32 4
  %13 = load ptr, ptr %12, align 8, !tbaa !28
  store ptr %13, ptr %4, align 8, !tbaa !29
  call void @llvm.lifetime.start.p0(i64 8, ptr %5) #8
  call void @llvm.lifetime.start.p0(i64 4, ptr %6) #8
  call void @llvm.lifetime.start.p0(i64 4, ptr %7) #8
  %14 = load ptr, ptr %4, align 8, !tbaa !29
  %15 = call i64 @avio_tell(ptr noundef %14)
  store i64 %15, ptr %5, align 8, !tbaa !81
  %16 = load i64, ptr %5, align 8, !tbaa !81
  %17 = load ptr, ptr %3, align 8, !tbaa !26
  %18 = getelementptr inbounds nuw %struct.SWFEncContext, ptr %17, i32 0, i32 1
  %19 = load i64, ptr %18, align 8, !tbaa !79
  %20 = sub nsw i64 %16, %19
  %21 = sub nsw i64 %20, 2
  %22 = trunc i64 %21 to i32
  store i32 %22, ptr %6, align 4, !tbaa !37
  %23 = load ptr, ptr %3, align 8, !tbaa !26
  %24 = getelementptr inbounds nuw %struct.SWFEncContext, ptr %23, i32 0, i32 7
  %25 = load i32, ptr %24, align 8, !tbaa !80
  store i32 %25, ptr %7, align 4, !tbaa !37
  %26 = load ptr, ptr %4, align 8, !tbaa !29
  %27 = load ptr, ptr %3, align 8, !tbaa !26
  %28 = getelementptr inbounds nuw %struct.SWFEncContext, ptr %27, i32 0, i32 1
  %29 = load i64, ptr %28, align 8, !tbaa !79
  %30 = call i64 @avio_seek(ptr noundef %26, i64 noundef %29, i32 noundef 0)
  %31 = load i32, ptr %7, align 4, !tbaa !37
  %32 = and i32 %31, 256
  %33 = icmp ne i32 %32, 0
  br i1 %33, label %34, label %44

34:                                               ; preds = %1
  %35 = load i32, ptr %7, align 4, !tbaa !37
  %36 = and i32 %35, -257
  store i32 %36, ptr %7, align 4, !tbaa !37
  %37 = load ptr, ptr %4, align 8, !tbaa !29
  %38 = load i32, ptr %7, align 4, !tbaa !37
  %39 = shl i32 %38, 6
  %40 = or i32 %39, 63
  call void @avio_wl16(ptr noundef %37, i32 noundef %40)
  %41 = load ptr, ptr %4, align 8, !tbaa !29
  %42 = load i32, ptr %6, align 4, !tbaa !37
  %43 = sub nsw i32 %42, 4
  call void @avio_wl32(ptr noundef %41, i32 noundef %43)
  br label %57

44:                                               ; preds = %1
  br label %45

45:                                               ; preds = %44
  %46 = load i32, ptr %6, align 4, !tbaa !37
  %47 = icmp slt i32 %46, 63
  br i1 %47, label %49, label %48

48:                                               ; preds = %45
  call void (ptr, i32, ptr, ...) @av_log(ptr noundef null, i32 noundef 0, ptr noundef @.str.10, ptr noundef @.str.11, ptr noundef @.str.12, i32 noundef 81)
  call void @abort() #10
  unreachable

49:                                               ; preds = %45
  br label %50

50:                                               ; preds = %49
  br label %51

51:                                               ; preds = %50
  %52 = load ptr, ptr %4, align 8, !tbaa !29
  %53 = load i32, ptr %7, align 4, !tbaa !37
  %54 = shl i32 %53, 6
  %55 = load i32, ptr %6, align 4, !tbaa !37
  %56 = or i32 %54, %55
  call void @avio_wl16(ptr noundef %52, i32 noundef %56)
  br label %57

57:                                               ; preds = %51, %34
  %58 = load ptr, ptr %4, align 8, !tbaa !29
  %59 = load i64, ptr %5, align 8, !tbaa !81
  %60 = call i64 @avio_seek(ptr noundef %58, i64 noundef %59, i32 noundef 0)
  call void @llvm.lifetime.end.p0(i64 4, ptr %7) #8
  call void @llvm.lifetime.end.p0(i64 4, ptr %6) #8
  call void @llvm.lifetime.end.p0(i64 8, ptr %5) #8
  call void @llvm.lifetime.end.p0(i64 8, ptr %4) #8
  call void @llvm.lifetime.end.p0(i64 8, ptr %3) #8
  ret void
}