; Function Attrs: nounwind uwtable
define internal fastcc void @put_swf_end_tag(ptr readonly captures(none) %.24.val, ptr %.32.val) unnamed_addr #0 {
  %1 = tail call i64 @avio_seek(ptr noundef %.32.val, i64 noundef 0, i32 noundef 1) #6
  %2 = getelementptr inbounds nuw i8, ptr %.24.val, i64 8
  %3 = load i64, ptr %2, align 8, !tbaa !62
  %4 = sub nsw i64 %1, %3
  %5 = trunc i64 %4 to i32
  %6 = add i32 %5, -2
  %7 = getelementptr inbounds nuw i8, ptr %.24.val, i64 40
  %8 = load i32, ptr %7, align 8, !tbaa !63
  %9 = tail call i64 @avio_seek(ptr noundef %.32.val, i64 noundef %3, i32 noundef 0) #6
  %10 = and i32 %8, 256
  %.not = icmp eq i32 %10, 0
  br i1 %.not, label %16, label %11

11:                                               ; preds = %0
  %12 = shl i32 %8, 6
  %13 = and i32 %12, -16448
  %14 = or disjoint i32 %13, 63
  tail call void @avio_wl16(ptr noundef %.32.val, i32 noundef %14) #6
  %15 = add i32 %5, -6
  tail call void @avio_wl32(ptr noundef %.32.val, i32 noundef %15) #6
  br label %22

16:                                               ; preds = %0
  %17 = icmp slt i32 %6, 63
  br i1 %17, label %19, label %18

18:                                               ; preds = %16
  tail call void (ptr, i32, ptr, ...) @av_log(ptr noundef null, i32 noundef 0, ptr noundef nonnull @.str.10, ptr noundef nonnull @.str.11, ptr noundef nonnull @.str.12, i32 noundef 81) #6
  tail call void @abort() #8
  unreachable

19:                                               ; preds = %16
  %20 = shl i32 %8, 6
  %21 = or i32 %6, %20
  tail call void @avio_wl16(ptr noundef %.32.val, i32 noundef %21) #6
  br label %22

22:                                               ; preds = %19, %11
  %23 = tail call i64 @avio_seek(ptr noundef %.32.val, i64 noundef %1, i32 noundef 0) #6
  ret void
}